target datalayout = "e-m:e-p270:32:32-p271:32:32-p272:64:64-i64:64-i128:128-f80:128-n8:16:32:64-S128"
target triple = "x86_64-unknown-linux-gnu"

%"class.icu_75::FormattedValue" = type { ptr }
%"class.icu_75::number::FormattedNumberRange" = type <{ %"class.icu_75::FormattedValue", ptr, i32, [4 x i8] }>

; Function Attrs: mustprogress nounwind uwtable
define void @_ZN6icu_756number20FormattedNumberRangeD2Ev(ptr noundef nonnull align 8 dereferenceable(20) %this) unnamed_addr #0 align 2 {
entry:
  %this.addr = alloca ptr, align 8
  store ptr %this, ptr %this.addr, align 8
  %this1 = load ptr, ptr %this.addr, align 8
  store ptr getelementptr inbounds ({ [8 x ptr] }, ptr @_ZTVN6icu_756number20FormattedNumberRangeE, i32 0, i32 0, i32 2), ptr %this1, align 8
  %fData = getelementptr inbounds %"class.icu_75::number::FormattedNumberRange", ptr %this1, i32 0, i32 1
  %0 = load ptr, ptr %fData, align 8
  %isnull = icmp eq ptr %0, null
  br i1 %isnull, label %delete.end, label %delete.notnull

delete.notnull:                                   ; preds = %entry
  %vtable = load ptr, ptr %0, align 8
  %vfn = getelementptr inbounds ptr, ptr %vtable, i64 1
  %1 = load ptr, ptr %vfn, align 8
  call void %1(ptr noundef nonnull align 8 dereferenceable(452) %0) #7
  br label %delete.end

delete.end:                                       ; preds = %delete.notnull, %entry
  %fData2 = getelementptr inbounds %"class.icu_75::number::FormattedNumberRange", ptr %this1, i32 0, i32 1
  store ptr null, ptr %fData2, align 8
  call void @_ZN6icu_7514FormattedValueD2Ev(ptr noundef nonnull align 8 dereferenceable(8) %this1) #7
  ret void
}