; Function Attrs: mustprogress nounwind uwtable
define void @_ZN6icu_756number20FormattedNumberRangeD2Ev(ptr noundef nonnull align 8 dereferenceable(20) %this) unnamed_addr #0 align 2 {
entry:
  store ptr getelementptr inbounds ({ [8 x ptr] }, ptr @_ZTVN6icu_756number20FormattedNumberRangeE, i64 0, i32 0, i64 2), ptr %this, align 8
  %fData = getelementptr inbounds i8, ptr %this, i64 8
  %0 = load ptr, ptr %fData, align 8
  %isnull = icmp eq ptr %0, null
  br i1 %isnull, label %delete.end, label %delete.notnull

delete.notnull:                                   ; preds = %entry
  %vtable = load ptr, ptr %0, align 8
  %vfn = getelementptr inbounds i8, ptr %vtable, i64 8
  %1 = load ptr, ptr %vfn, align 8
  tail call void %1(ptr noundef nonnull align 8 dereferenceable(452) %0) #10
  br label %delete.end

delete.end:                                       ; preds = %delete.notnull, %entry
  store ptr null, ptr %fData, align 8
  tail call void @_ZN6icu_7514FormattedValueD2Ev(ptr noundef nonnull align 8 dereferenceable(8) %this) #10
  ret void
}